; Function Attrs: mustprogress nounwind uwtable
define hidden noundef i64 @_ZNK4Node13get_narrowconEv(ptr nocapture noundef nonnull readonly align 8 dereferenceable(52) %0) local_unnamed_addr #0 align 2 {
  %2 = getelementptr inbounds i8, ptr %0, i64 56
  %3 = load ptr, ptr %2, align 8
  %4 = load ptr, ptr %3, align 8
  %5 = getelementptr inbounds i8, ptr %4, i64 208
  %6 = load ptr, ptr %5, align 8
  %7 = tail call noundef i64 %6(ptr noundef nonnull align 8 dereferenceable(32) %3) #15
  ret i64 %7
}